; Function Attrs: nounwind uwtable
define internal fastcc range(i32 -1, 1) i32 @session_send(ptr %.0.val) unnamed_addr #0 {
  %1 = tail call i32 @nghttp2_session_send(ptr noundef %.0.val) #18
  %.not = icmp eq i32 %1, 0
  br i1 %.not, label %4, label %2

2:                                                ; preds = %0
  %3 = tail call ptr @nghttp2_strerror(i32 noundef %1) #18
  tail call void (ptr, ...) @warnx(ptr noundef nonnull @.str.7, ptr noundef %3) #18
  br label %4

4:                                                ; preds = %0, %2
  %.0 = phi i32 [ -1, %2 ], [ 0, %0 ]
  ret i32 %.0
}